target datalayout = "e-m:e-p270:32:32-p271:32:32-p272:64:64-i64:64-i128:128-f80:128-n8:16:32:64-S128"
target triple = "x86_64-pc-linux-gnu"

%struct.RIPEMD160state_st = type { [5 x i32], i32, i32, [64 x i8], i32 }

; Function Attrs: nounwind uwtable
define hidden i32 @RIPEMD160_Update(ptr noundef %0, ptr noundef %1, i64 noundef %2) #0 {
  %4 = alloca i32, align 4
  %5 = alloca ptr, align 8
  %6 = alloca ptr, align 8
  %7 = alloca i64, align 8
  %8 = alloca ptr, align 8
  %9 = alloca i32, align 4
  %10 = alloca i32, align 4
  %11 = alloca i64, align 8
  store ptr %0, ptr %5, align 8, !tbaa !6
  store ptr %1, ptr %6, align 8, !tbaa !11
  store i64 %2, ptr %7, align 8, !tbaa !12
  call void @llvm.lifetime.start.p0(i64 8, ptr %8) #4
  %12 = load ptr, ptr %6, align 8, !tbaa !11
  store ptr %12, ptr %8, align 8, !tbaa !14
  %13 = load i64, ptr %7, align 8, !tbaa !12
  %14 = icmp eq i64 %13, 0
  br i1 %14, label %15, label %16

15:                                               ; preds = %3
  store i32 1, ptr %4, align 4
  store i32 1, ptr %9, align 4
  br label %136

16:                                               ; preds = %3
  call void @llvm.lifetime.start.p0(i64 4, ptr %10) #4
  %17 = load ptr, ptr %5, align 8, !tbaa !6
  %18 = getelementptr inbounds nuw %struct.RIPEMD160state_st, ptr %17, i32 0, i32 1
  %19 = load i32, ptr %18, align 4, !tbaa !16
  %20 = load i64, ptr %7, align 8, !tbaa !12
  %21 = trunc i64 %20 to i32
  %22 = shl i32 %21, 3
  %23 = add i32 %19, %22
  store i32 %23, ptr %10, align 4, !tbaa !19
  %24 = load i32, ptr %10, align 4, !tbaa !19
  %25 = load ptr, ptr %5, align 8, !tbaa !6
  %26 = getelementptr inbounds nuw %struct.RIPEMD160state_st, ptr %25, i32 0, i32 1
  %27 = load i32, ptr %26, align 4, !tbaa !16
  %28 = icmp ult i32 %24, %27
  br i1 %28, label %29, label %34

29:                                               ; preds = %16
  %30 = load ptr, ptr %5, align 8, !tbaa !6
  %31 = getelementptr inbounds nuw %struct.RIPEMD160state_st, ptr %30, i32 0, i32 2
  %32 = load i32, ptr %31, align 4, !tbaa !20
  %33 = add i32 %32, 1
  store i32 %33, ptr %31, align 4, !tbaa !20
  br label %34

34:                                               ; preds = %29, %16
  %35 = load i64, ptr %7, align 8, !tbaa !12
  %36 = lshr i64 %35, 29
  %37 = trunc i64 %36 to i32
  %38 = load ptr, ptr %5, align 8, !tbaa !6
  %39 = getelementptr inbounds nuw %struct.RIPEMD160state_st, ptr %38, i32 0, i32 2
  %40 = load i32, ptr %39, align 4, !tbaa !20
  %41 = add i32 %40, %37
  store i32 %41, ptr %39, align 4, !tbaa !20
  %42 = load i32, ptr %10, align 4, !tbaa !19
  %43 = load ptr, ptr %5, align 8, !tbaa !6
  %44 = getelementptr inbounds nuw %struct.RIPEMD160state_st, ptr %43, i32 0, i32 1
  store i32 %42, ptr %44, align 4, !tbaa !16
  call void @llvm.lifetime.start.p0(i64 8, ptr %11) #4
  %45 = load ptr, ptr %5, align 8, !tbaa !6
  %46 = getelementptr inbounds nuw %struct.RIPEMD160state_st, ptr %45, i32 0, i32 4
  %47 = load i32, ptr %46, align 4, !tbaa !21
  %48 = zext i32 %47 to i64
  store i64 %48, ptr %11, align 8, !tbaa !12
  %49 = load i64, ptr %11, align 8, !tbaa !12
  %50 = icmp ne i64 %49, 0
  br i1 %50, label %51, label %102

51:                                               ; preds = %34
  %52 = load i64, ptr %7, align 8, !tbaa !12
  %53 = icmp uge i64 %52, 64
  br i1 %53, label %59, label %54

54:                                               ; preds = %51
  %55 = load i64, ptr %7, align 8, !tbaa !12
  %56 = load i64, ptr %11, align 8, !tbaa !12
  %57 = add i64 %55, %56
  %58 = icmp uge i64 %57, 64
  br i1 %58, label %59, label %87

59:                                               ; preds = %54, %51
  %60 = load ptr, ptr %5, align 8, !tbaa !6
  %61 = getelementptr inbounds nuw %struct.RIPEMD160state_st, ptr %60, i32 0, i32 3
  %62 = getelementptr inbounds [64 x i8], ptr %61, i64 0, i64 0
  %63 = load i64, ptr %11, align 8, !tbaa !12
  %64 = getelementptr inbounds nuw i8, ptr %62, i64 %63
  %65 = load ptr, ptr %8, align 8, !tbaa !14
  %66 = load i64, ptr %11, align 8, !tbaa !12
  %67 = sub i64 64, %66
  call void @llvm.memcpy.p0.p0.i64(ptr align 1 %64, ptr align 1 %65, i64 %67, i1 false)
  %68 = load ptr, ptr %5, align 8, !tbaa !6
  %69 = getelementptr inbounds nuw %struct.RIPEMD160state_st, ptr %68, i32 0, i32 0
  %70 = getelementptr inbounds [5 x i32], ptr %69, i64 0, i64 0
  %71 = load ptr, ptr %5, align 8, !tbaa !6
  %72 = getelementptr inbounds nuw %struct.RIPEMD160state_st, ptr %71, i32 0, i32 3
  %73 = getelementptr inbounds [64 x i8], ptr %72, i64 0, i64 0
  call void @ripemd160_block_data_order(ptr noundef %70, ptr noundef %73, i64 noundef 1)
  %74 = load i64, ptr %11, align 8, !tbaa !12
  %75 = sub i64 64, %74
  store i64 %75, ptr %11, align 8, !tbaa !12
  %76 = load i64, ptr %11, align 8, !tbaa !12
  %77 = load ptr, ptr %8, align 8, !tbaa !14
  %78 = getelementptr inbounds nuw i8, ptr %77, i64 %76
  store ptr %78, ptr %8, align 8, !tbaa !14
  %79 = load i64, ptr %11, align 8, !tbaa !12
  %80 = load i64, ptr %7, align 8, !tbaa !12
  %81 = sub i64 %80, %79
  store i64 %81, ptr %7, align 8, !tbaa !12
  %82 = load ptr, ptr %5, align 8, !tbaa !6
  %83 = getelementptr inbounds nuw %struct.RIPEMD160state_st, ptr %82, i32 0, i32 4
  store i32 0, ptr %83, align 4, !tbaa !21
  %84 = load ptr, ptr %5, align 8, !tbaa !6
  %85 = getelementptr inbounds nuw %struct.RIPEMD160state_st, ptr %84, i32 0, i32 3
  %86 = getelementptr inbounds [64 x i8], ptr %85, i64 0, i64 0
  call void @llvm.memset.p0.i64(ptr align 4 %86, i8 0, i64 64, i1 false)
  br label %101

87:                                               ; preds = %54
  %88 = load ptr, ptr %5, align 8, !tbaa !6
  %89 = getelementptr inbounds nuw %struct.RIPEMD160state_st, ptr %88, i32 0, i32 3
  %90 = getelementptr inbounds [64 x i8], ptr %89, i64 0, i64 0
  %91 = load i64, ptr %11, align 8, !tbaa !12
  %92 = getelementptr inbounds nuw i8, ptr %90, i64 %91
  %93 = load ptr, ptr %8, align 8, !tbaa !14
  %94 = load i64, ptr %7, align 8, !tbaa !12
  call void @llvm.memcpy.p0.p0.i64(ptr align 1 %92, ptr align 1 %93, i64 %94, i1 false)
  %95 = load i64, ptr %7, align 8, !tbaa !12
  %96 = trunc i64 %95 to i32
  %97 = load ptr, ptr %5, align 8, !tbaa !6
  %98 = getelementptr inbounds nuw %struct.RIPEMD160state_st, ptr %97, i32 0, i32 4
  %99 = load i32, ptr %98, align 4, !tbaa !21
  %100 = add i32 %99, %96
  store i32 %100, ptr %98, align 4, !tbaa !21
  store i32 1, ptr %4, align 4
  store i32 1, ptr %9, align 4
  br label %135

101:                                              ; preds = %59
  br label %102

102:                                              ; preds = %101, %34
  %103 = load i64, ptr %7, align 8, !tbaa !12
  %104 = udiv i64 %103, 64
  store i64 %104, ptr %11, align 8, !tbaa !12
  %105 = load i64, ptr %11, align 8, !tbaa !12
  %106 = icmp ugt i64 %105, 0
  br i1 %106, label %107, label %121

107:                                              ; preds = %102
  %108 = load ptr, ptr %5, align 8, !tbaa !6
  %109 = getelementptr inbounds nuw %struct.RIPEMD160state_st, ptr %108, i32 0, i32 0
  %110 = getelementptr inbounds [5 x i32], ptr %109, i64 0, i64 0
  %111 = load ptr, ptr %8, align 8, !tbaa !14
  %112 = load i64, ptr %11, align 8, !tbaa !12
  call void @ripemd160_block_data_order(ptr noundef %110, ptr noundef %111, i64 noundef %112)
  %113 = load i64, ptr %11, align 8, !tbaa !12
  %114 = mul i64 %113, 64
  store i64 %114, ptr %11, align 8, !tbaa !12
  %115 = load i64, ptr %11, align 8, !tbaa !12
  %116 = load ptr, ptr %8, align 8, !tbaa !14
  %117 = getelementptr inbounds nuw i8, ptr %116, i64 %115
  store ptr %117, ptr %8, align 8, !tbaa !14
  %118 = load i64, ptr %11, align 8, !tbaa !12
  %119 = load i64, ptr %7, align 8, !tbaa !12
  %120 = sub i64 %119, %118
  store i64 %120, ptr %7, align 8, !tbaa !12
  br label %121

121:                                              ; preds = %107, %102
  %122 = load i64, ptr %7, align 8, !tbaa !12
  %123 = icmp ne i64 %122, 0
  br i1 %123, label %124, label %134

124:                                              ; preds = %121
  %125 = load i64, ptr %7, align 8, !tbaa !12
  %126 = trunc i64 %125 to i32
  %127 = load ptr, ptr %5, align 8, !tbaa !6
  %128 = getelementptr inbounds nuw %struct.RIPEMD160state_st, ptr %127, i32 0, i32 4
  store i32 %126, ptr %128, align 4, !tbaa !21
  %129 = load ptr, ptr %5, align 8, !tbaa !6
  %130 = getelementptr inbounds nuw %struct.RIPEMD160state_st, ptr %129, i32 0, i32 3
  %131 = getelementptr inbounds [64 x i8], ptr %130, i64 0, i64 0
  %132 = load ptr, ptr %8, align 8, !tbaa !14
  %133 = load i64, ptr %7, align 8, !tbaa !12
  call void @llvm.memcpy.p0.p0.i64(ptr align 4 %131, ptr align 1 %132, i64 %133, i1 false)
  br label %134

134:                                              ; preds = %124, %121
  store i32 1, ptr %4, align 4
  store i32 1, ptr %9, align 4
  br label %135

135:                                              ; preds = %134, %87
  call void @llvm.lifetime.end.p0(i64 8, ptr %11) #4
  call void @llvm.lifetime.end.p0(i64 4, ptr %10) #4
  br label %136

136:                                              ; preds = %135, %15
  call void @llvm.lifetime.end.p0(i64 8, ptr %8) #4
  %137 = load i32, ptr %4, align 4
  ret i32 %137
}